; ModuleID = '55/578.c'
source_filename = "55/578.c"
target datalayout = "e-m:e-p270:32:32-p271:32:32-p272:64:64-i64:64-f80:128-n8:16:32:64-S128"
target triple = "x86_64-pc-linux-gnu"

@.str = private unnamed_addr constant [9 x i8] c"%d %s %d\00", align 1
@.str.1 = private unnamed_addr constant [3 x i8] c"%c\00", align 1

; Function Attrs: noinline nounwind uwtable
define dso_local i32 @main() #0 {
  %1 = alloca i32, align 4
  %2 = alloca i32, align 4
  %3 = alloca i32, align 4
  %4 = alloca i32, align 4
  %5 = alloca [100 x i8], align 16
  %6 = alloca i64, align 8
  %7 = alloca i32, align 4
  %8 = alloca [100 x i8], align 16
  %9 = alloca i32, align 4
  %10 = alloca i32, align 4
  store i32 0, i32* %1, align 4
  store i64 0, i64* %6, align 8
  %11 = getelementptr inbounds [100 x i8], [100 x i8]* %5, i64 0, i64 0
  %12 = call i32 (i8*, ...) @__isoc99_scanf(i8* getelementptr inbounds ([9 x i8], [9 x i8]* @.str, i64 0, i64 0), i32* %2, i8* %11, i32* %3)
  %13 = getelementptr inbounds [100 x i8], [100 x i8]* %5, i64 0, i64 0
  %14 = call i64 @strlen(i8* %13) #3
  %15 = trunc i64 %14 to i32
  store i32 %15, i32* %9, align 4
  store i32 0, i32* %4, align 4
  br label %16

16:                                               ; preds = %107, %0
  %17 = load i32, i32* %4, align 4
  %18 = load i32, i32* %9, align 4
  %19 = icmp slt i32 %17, %18
  br i1 %19, label %20, label %110

20:                                               ; preds = %16
  %21 = load i32, i32* %4, align 4
  %22 = sext i32 %21 to i64
  %23 = getelementptr inbounds [100 x i8], [100 x i8]* %5, i64 0, i64 %22
  %24 = load i8, i8* %23, align 1
  %25 = sext i8 %24 to i32
  %26 = icmp sge i32 %25, 48
  br i1 %26, label %27, label %48

27:                                               ; preds = %20
  %28 = load i32, i32* %4, align 4
  %29 = sext i32 %28 to i64
  %30 = getelementptr inbounds [100 x i8], [100 x i8]* %5, i64 0, i64 %29
  %31 = load i8, i8* %30, align 1
  %32 = sext i8 %31 to i32
  %33 = icmp sle i32 %32, 57
  br i1 %33, label %34, label %48

34:                                               ; preds = %27
  %35 = load i32, i32* %2, align 4
  %36 = sext i32 %35 to i64
  %37 = load i64, i64* %6, align 8
  %38 = mul nsw i64 %37, %36
  store i64 %38, i64* %6, align 8
  %39 = load i32, i32* %4, align 4
  %40 = sext i32 %39 to i64
  %41 = getelementptr inbounds [100 x i8], [100 x i8]* %5, i64 0, i64 %40
  %42 = load i8, i8* %41, align 1
  %43 = sext i8 %42 to i32
  %44 = sub nsw i32 %43, 48
  %45 = sext i32 %44 to i64
  %46 = load i64, i64* %6, align 8
  %47 = add nsw i64 %46, %45
  store i64 %47, i64* %6, align 8
  br label %48

48:                                               ; preds = %34, %27, %20
  %49 = load i32, i32* %4, align 4
  %50 = sext i32 %49 to i64
  %51 = getelementptr inbounds [100 x i8], [100 x i8]* %5, i64 0, i64 %50
  %52 = load i8, i8* %51, align 1
  %53 = sext i8 %52 to i32
  %54 = icmp sge i32 %53, 65
  br i1 %54, label %55, label %77

55:                                               ; preds = %48
  %56 = load i32, i32* %4, align 4
  %57 = sext i32 %56 to i64
  %58 = getelementptr inbounds [100 x i8], [100 x i8]* %5, i64 0, i64 %57
  %59 = load i8, i8* %58, align 1
  %60 = sext i8 %59 to i32
  %61 = icmp sle i32 %60, 90
  br i1 %61, label %62, label %77

62:                                               ; preds = %55
  %63 = load i32, i32* %2, align 4
  %64 = sext i32 %63 to i64
  %65 = load i64, i64* %6, align 8
  %66 = mul nsw i64 %65, %64
  store i64 %66, i64* %6, align 8
  %67 = load i32, i32* %4, align 4
  %68 = sext i32 %67 to i64
  %69 = getelementptr inbounds [100 x i8], [100 x i8]* %5, i64 0, i64 %68
  %70 = load i8, i8* %69, align 1
  %71 = sext i8 %70 to i32
  %72 = sub nsw i32 %71, 65
  %73 = add nsw i32 %72, 10
  %74 = sext i32 %73 to i64
  %75 = load i64, i64* %6, align 8
  %76 = add nsw i64 %75, %74
  store i64 %76, i64* %6, align 8
  br label %77

77:                                               ; preds = %62, %55, %48
  %78 = load i32, i32* %4, align 4
  %79 = sext i32 %78 to i64
  %80 = getelementptr inbounds [100 x i8], [100 x i8]* %5, i64 0, i64 %79
  %81 = load i8, i8* %80, align 1
  %82 = sext i8 %81 to i32
  %83 = icmp sge i32 %82, 97
  br i1 %83, label %84, label %106

84:                                               ; preds = %77
  %85 = load i32, i32* %4, align 4
  %86 = sext i32 %85 to i64
  %87 = getelementptr inbounds [100 x i8], [100 x i8]* %5, i64 0, i64 %86
  %88 = load i8, i8* %87, align 1
  %89 = sext i8 %88 to i32
  %90 = icmp sle i32 %89, 122
  br i1 %90, label %91, label %106

91:                                               ; preds = %84
  %92 = load i32, i32* %2, align 4
  %93 = sext i32 %92 to i64
  %94 = load i64, i64* %6, align 8
  %95 = mul nsw i64 %94, %93
  store i64 %95, i64* %6, align 8
  %96 = load i32, i32* %4, align 4
  %97 = sext i32 %96 to i64
  %98 = getelementptr inbounds [100 x i8], [100 x i8]* %5, i64 0, i64 %97
  %99 = load i8, i8* %98, align 1
  %100 = sext i8 %99 to i32
  %101 = sub nsw i32 %100, 97
  %102 = add nsw i32 %101, 10
  %103 = sext i32 %102 to i64
  %104 = load i64, i64* %6, align 8
  %105 = add nsw i64 %104, %103
  store i64 %105, i64* %6, align 8
  br label %106

106:                                              ; preds = %91, %84, %77
  br label %107

107:                                              ; preds = %106
  %108 = load i32, i32* %4, align 4
  %109 = add nsw i32 %108, 1
  store i32 %109, i32* %4, align 4
  br label %16

110:                                              ; preds = %16
  store i32 0, i32* %4, align 4
  br label %111

111:                                              ; preds = %143, %110
  %112 = load i64, i64* %6, align 8
  %113 = load i32, i32* %3, align 4
  %114 = sext i32 %113 to i64
  %115 = srem i64 %112, %114
  %116 = trunc i64 %115 to i32
  store i32 %116, i32* %7, align 4
  %117 = load i64, i64* %6, align 8
  %118 = load i32, i32* %3, align 4
  %119 = sext i32 %118 to i64
  %120 = sdiv i64 %117, %119
  store i64 %120, i64* %6, align 8
  %121 = load i32, i32* %7, align 4
  %122 = icmp slt i32 %121, 10
  br i1 %122, label %123, label %130

123:                                              ; preds = %111
  %124 = load i32, i32* %7, align 4
  %125 = add nsw i32 %124, 48
  %126 = trunc i32 %125 to i8
  %127 = load i32, i32* %4, align 4
  %128 = sext i32 %127 to i64
  %129 = getelementptr inbounds [100 x i8], [100 x i8]* %8, i64 0, i64 %128
  store i8 %126, i8* %129, align 1
  br label %138

130:                                              ; preds = %111
  %131 = load i32, i32* %7, align 4
  %132 = sub nsw i32 %131, 10
  %133 = add nsw i32 %132, 65
  %134 = trunc i32 %133 to i8
  %135 = load i32, i32* %4, align 4
  %136 = sext i32 %135 to i64
  %137 = getelementptr inbounds [100 x i8], [100 x i8]* %8, i64 0, i64 %136
  store i8 %134, i8* %137, align 1
  br label %138

138:                                              ; preds = %130, %123
  %139 = load i64, i64* %6, align 8
  %140 = icmp eq i64 %139, 0
  br i1 %140, label %141, label %142

141:                                              ; preds = %138
  br label %146

142:                                              ; preds = %138
  br label %143

143:                                              ; preds = %142
  %144 = load i32, i32* %4, align 4
  %145 = add nsw i32 %144, 1
  store i32 %145, i32* %4, align 4
  br label %111

146:                                              ; preds = %141
  %147 = load i32, i32* %4, align 4
  store i32 %147, i32* %10, align 4
  br label %148

148:                                              ; preds = %158, %146
  %149 = load i32, i32* %10, align 4
  %150 = icmp sge i32 %149, 0
  br i1 %150, label %151, label %161

151:                                              ; preds = %148
  %152 = load i32, i32* %10, align 4
  %153 = sext i32 %152 to i64
  %154 = getelementptr inbounds [100 x i8], [100 x i8]* %8, i64 0, i64 %153
  %155 = load i8, i8* %154, align 1
  %156 = sext i8 %155 to i32
  %157 = call i32 (i8*, ...) @printf(i8* getelementptr inbounds ([3 x i8], [3 x i8]* @.str.1, i64 0, i64 0), i32 %156)
  br label %158

158:                                              ; preds = %151
  %159 = load i32, i32* %10, align 4
  %160 = add nsw i32 %159, -1
  store i32 %160, i32* %10, align 4
  br label %148

161:                                              ; preds = %148
  ret i32 0
}

declare dso_local i32 @__isoc99_scanf(i8*, ...) #1

; Function Attrs: nounwind readonly
declare dso_local i64 @strlen(i8*) #2

declare dso_local i32 @printf(i8*, ...) #1


!llvm.module.flags = !{!0}
!llvm.ident = !{!1}

!0 = !{i32 1, !"wchar_size", i32 4}
!1 = !{!"clang version 10.0.0-4ubuntu1 "}
